target datalayout = "e-m:e-p270:32:32-p271:32:32-p272:64:64-i64:64-i128:128-f80:128-n8:16:32:64-S128"
target triple = "x86_64-pc-linux-gnu"

%struct._object = type { %union.anon, ptr }
%union.anon = type { i64 }
%struct.Py_complex = type { double, double }
%struct._typeobject = type { %struct.PyVarObject, ptr, i64, i64, ptr, i64, ptr, ptr, ptr, ptr, ptr, ptr, ptr, ptr, ptr, ptr, ptr, ptr, ptr, i64, ptr, ptr, ptr, ptr, i64, ptr, ptr, ptr, ptr, ptr, ptr, ptr, ptr, ptr, i64, ptr, ptr, ptr, ptr, ptr, ptr, ptr, ptr, ptr, ptr, ptr, i32, ptr, ptr, i8, i16 }
%struct.PyVarObject = type { %struct._object, i64 }
%struct.PyFloatObject = type { %struct._object, double }

@.str.18 = private unnamed_addr constant [5 x i8] c"rect\00", align 1
@PyExc_ValueError = external global ptr, align 8
@.str.25 = private unnamed_addr constant [18 x i8] c"math domain error\00", align 1
@PyExc_OverflowError = external global ptr, align 8
@.str.26 = private unnamed_addr constant [17 x i8] c"math range error\00", align 1
@PyFloat_Type = external global %struct._typeobject, align 8
@rect_special_values = internal global [7 x [7 x %struct.Py_complex]] zeroinitializer, align 16

; Function Attrs: nounwind uwtable
define internal ptr @math_error() #0 {
  %1 = call ptr @__errno_location() #9
  %2 = load i32, ptr %1, align 4, !tbaa !11
  %3 = icmp eq i32 %2, 33
  br i1 %3, label %4, label %6

4:                                                ; preds = %0
  %5 = load ptr, ptr @PyExc_ValueError, align 8, !tbaa !3
  call void @PyErr_SetString(ptr noundef %5, ptr noundef @.str.25)
  br label %16

6:                                                ; preds = %0
  %7 = call ptr @__errno_location() #9
  %8 = load i32, ptr %7, align 4, !tbaa !11
  %9 = icmp eq i32 %8, 34
  br i1 %9, label %10, label %12

10:                                               ; preds = %6
  %11 = load ptr, ptr @PyExc_OverflowError, align 8, !tbaa !3
  call void @PyErr_SetString(ptr noundef %11, ptr noundef @.str.26)
  br label %15

12:                                               ; preds = %6
  %13 = load ptr, ptr @PyExc_ValueError, align 8, !tbaa !3
  %14 = call ptr @PyErr_SetFromErrno(ptr noundef %13)
  br label %15

15:                                               ; preds = %12, %10
  br label %16

16:                                               ; preds = %15, %4
  ret ptr null
}

; Function Attrs: nounwind uwtable
define internal i32 @special_type(double noundef %0) #0 {
  %2 = alloca i32, align 4
  %3 = alloca double, align 8
  store double %0, ptr %3, align 8, !tbaa !9
  %4 = load double, ptr %3, align 8, !tbaa !9
  %5 = call i1 @llvm.is.fpclass.f64(double %4, i32 504)
  br i1 %5, label %6, label %21

6:                                                ; preds = %1
  %7 = load double, ptr %3, align 8, !tbaa !9
  %8 = fcmp une double %7, 0.000000e+00
  br i1 %8, label %9, label %15

9:                                                ; preds = %6
  %10 = load double, ptr %3, align 8, !tbaa !9
  %11 = call double @llvm.copysign.f64(double 1.000000e+00, double %10)
  %12 = fcmp oeq double %11, 1.000000e+00
  br i1 %12, label %13, label %14

13:                                               ; preds = %9
  store i32 4, ptr %2, align 4
  br label %31

14:                                               ; preds = %9
  store i32 1, ptr %2, align 4
  br label %31

15:                                               ; preds = %6
  %16 = load double, ptr %3, align 8, !tbaa !9
  %17 = call double @llvm.copysign.f64(double 1.000000e+00, double %16)
  %18 = fcmp oeq double %17, 1.000000e+00
  br i1 %18, label %19, label %20

19:                                               ; preds = %15
  store i32 3, ptr %2, align 4
  br label %31

20:                                               ; preds = %15
  store i32 2, ptr %2, align 4
  br label %31

21:                                               ; preds = %1
  %22 = load double, ptr %3, align 8, !tbaa !9
  %23 = call i1 @llvm.is.fpclass.f64(double %22, i32 3)
  br i1 %23, label %24, label %25

24:                                               ; preds = %21
  store i32 6, ptr %2, align 4
  br label %31

25:                                               ; preds = %21
  %26 = load double, ptr %3, align 8, !tbaa !9
  %27 = call double @llvm.copysign.f64(double 1.000000e+00, double %26)
  %28 = fcmp oeq double %27, 1.000000e+00
  br i1 %28, label %29, label %30

29:                                               ; preds = %25
  store i32 5, ptr %2, align 4
  br label %31

30:                                               ; preds = %25
  store i32 0, ptr %2, align 4
  br label %31

31:                                               ; preds = %30, %29, %24, %20, %19, %14, %13
  %32 = load i32, ptr %2, align 4
  ret i32 %32
}

; Function Attrs: inlinehint nounwind uwtable
define internal ptr @_Py_TYPE(ptr noundef %0) #7 {
  %2 = alloca ptr, align 8
  store ptr %0, ptr %2, align 8, !tbaa !3
  %3 = load ptr, ptr %2, align 8, !tbaa !3
  %4 = getelementptr inbounds nuw %struct._object, ptr %3, i32 0, i32 1
  %5 = load ptr, ptr %4, align 8, !tbaa !28
  ret ptr %5
}

; Function Attrs: nounwind uwtable
define internal ptr @cmath_rect_impl(ptr noundef %0, double noundef %1, double noundef %2) #0 {
  %4 = alloca ptr, align 8
  %5 = alloca ptr, align 8
  %6 = alloca double, align 8
  %7 = alloca double, align 8
  %8 = alloca %struct.Py_complex, align 8
  %9 = alloca i32, align 4
  store ptr %0, ptr %5, align 8, !tbaa !3
  store double %1, ptr %6, align 8, !tbaa !9
  store double %2, ptr %7, align 8, !tbaa !9
  call void @llvm.lifetime.start.p0(i64 16, ptr %8) #8
  %10 = call ptr @__errno_location() #9
  store i32 0, ptr %10, align 4, !tbaa !11
  %11 = load double, ptr %6, align 8, !tbaa !9
  %12 = call i1 @llvm.is.fpclass.f64(double %11, i32 504)
  br i1 %12, label %13, label %16

13:                                               ; preds = %3
  %14 = load double, ptr %7, align 8, !tbaa !9
  %15 = call i1 @llvm.is.fpclass.f64(double %14, i32 504)
  br i1 %15, label %84, label %16

16:                                               ; preds = %13, %3
  %17 = load double, ptr %6, align 8, !tbaa !9
  %18 = call double @llvm.fabs.f64(double %17) #10
  %19 = fcmp oeq double %18, 0x7FF0000000000000
  %20 = bitcast double %17 to i64
  %21 = icmp slt i64 %20, 0
  %22 = select i1 %21, i32 -1, i32 1
  %23 = select i1 %19, i32 %22, i32 0
  %24 = icmp ne i32 %23, 0
  br i1 %24, label %25, label %55

25:                                               ; preds = %16
  %26 = load double, ptr %7, align 8, !tbaa !9
  %27 = call i1 @llvm.is.fpclass.f64(double %26, i32 504)
  br i1 %27, label %28, label %55

28:                                               ; preds = %25
  %29 = load double, ptr %7, align 8, !tbaa !9
  %30 = fcmp une double %29, 0.000000e+00
  br i1 %30, label %31, label %55

31:                                               ; preds = %28
  %32 = load double, ptr %6, align 8, !tbaa !9
  %33 = fcmp ogt double %32, 0.000000e+00
  br i1 %33, label %34, label %43

34:                                               ; preds = %31
  %35 = load double, ptr %7, align 8, !tbaa !9
  %36 = call double @cos(double noundef %35) #8, !tbaa !11
  %37 = call double @llvm.copysign.f64(double 0x7FF0000000000000, double %36)
  %38 = getelementptr inbounds nuw %struct.Py_complex, ptr %8, i32 0, i32 0
  store double %37, ptr %38, align 8, !tbaa !17
  %39 = load double, ptr %7, align 8, !tbaa !9
  %40 = call double @sin(double noundef %39) #8, !tbaa !11
  %41 = call double @llvm.copysign.f64(double 0x7FF0000000000000, double %40)
  %42 = getelementptr inbounds nuw %struct.Py_complex, ptr %8, i32 0, i32 1
  store double %41, ptr %42, align 8, !tbaa !19
  br label %54

43:                                               ; preds = %31
  %44 = load double, ptr %7, align 8, !tbaa !9
  %45 = call double @cos(double noundef %44) #8, !tbaa !11
  %46 = call double @llvm.copysign.f64(double 0x7FF0000000000000, double %45)
  %47 = fneg double %46
  %48 = getelementptr inbounds nuw %struct.Py_complex, ptr %8, i32 0, i32 0
  store double %47, ptr %48, align 8, !tbaa !17
  %49 = load double, ptr %7, align 8, !tbaa !9
  %50 = call double @sin(double noundef %49) #8, !tbaa !11
  %51 = call double @llvm.copysign.f64(double 0x7FF0000000000000, double %50)
  %52 = fneg double %51
  %53 = getelementptr inbounds nuw %struct.Py_complex, ptr %8, i32 0, i32 1
  store double %52, ptr %53, align 8, !tbaa !19
  br label %54

54:                                               ; preds = %43, %34
  br label %64

55:                                               ; preds = %28, %25, %16
  %56 = load double, ptr %6, align 8, !tbaa !9
  %57 = call i32 @special_type(double noundef %56)
  %58 = zext i32 %57 to i64
  %59 = getelementptr [7 x [7 x %struct.Py_complex]], ptr @rect_special_values, i64 0, i64 %58
  %60 = load double, ptr %7, align 8, !tbaa !9
  %61 = call i32 @special_type(double noundef %60)
  %62 = zext i32 %61 to i64
  %63 = getelementptr [7 x %struct.Py_complex], ptr %59, i64 0, i64 %62
  call void @llvm.memcpy.p0.p0.i64(ptr align 8 %8, ptr align 16 %63, i64 16, i1 false), !tbaa.struct !8
  br label %64

64:                                               ; preds = %55, %54
  %65 = load double, ptr %6, align 8, !tbaa !9
  %66 = fcmp une double %65, 0.000000e+00
  br i1 %66, label %67, label %81

67:                                               ; preds = %64
  %68 = load double, ptr %6, align 8, !tbaa !9
  %69 = call i1 @llvm.is.fpclass.f64(double %68, i32 3)
  br i1 %69, label %81, label %70

70:                                               ; preds = %67
  %71 = load double, ptr %7, align 8, !tbaa !9
  %72 = call double @llvm.fabs.f64(double %71) #10
  %73 = fcmp oeq double %72, 0x7FF0000000000000
  %74 = bitcast double %71 to i64
  %75 = icmp slt i64 %74, 0
  %76 = select i1 %75, i32 -1, i32 1
  %77 = select i1 %73, i32 %76, i32 0
  %78 = icmp ne i32 %77, 0
  br i1 %78, label %79, label %81

79:                                               ; preds = %70
  %80 = call ptr @__errno_location() #9
  store i32 33, ptr %80, align 4, !tbaa !11
  br label %83

81:                                               ; preds = %70, %67, %64
  %82 = call ptr @__errno_location() #9
  store i32 0, ptr %82, align 4, !tbaa !11
  br label %83

83:                                               ; preds = %81, %79
  br label %108

84:                                               ; preds = %13
  %85 = load double, ptr %7, align 8, !tbaa !9
  %86 = fcmp oeq double %85, 0.000000e+00
  br i1 %86, label %87, label %95

87:                                               ; preds = %84
  %88 = load double, ptr %6, align 8, !tbaa !9
  %89 = getelementptr inbounds nuw %struct.Py_complex, ptr %8, i32 0, i32 0
  store double %88, ptr %89, align 8, !tbaa !17
  %90 = load double, ptr %6, align 8, !tbaa !9
  %91 = load double, ptr %7, align 8, !tbaa !9
  %92 = fmul double %90, %91
  %93 = getelementptr inbounds nuw %struct.Py_complex, ptr %8, i32 0, i32 1
  store double %92, ptr %93, align 8, !tbaa !19
  %94 = call ptr @__errno_location() #9
  store i32 0, ptr %94, align 4, !tbaa !11
  br label %107

95:                                               ; preds = %84
  %96 = load double, ptr %6, align 8, !tbaa !9
  %97 = load double, ptr %7, align 8, !tbaa !9
  %98 = call double @cos(double noundef %97) #8, !tbaa !11
  %99 = fmul double %96, %98
  %100 = getelementptr inbounds nuw %struct.Py_complex, ptr %8, i32 0, i32 0
  store double %99, ptr %100, align 8, !tbaa !17
  %101 = load double, ptr %6, align 8, !tbaa !9
  %102 = load double, ptr %7, align 8, !tbaa !9
  %103 = call double @sin(double noundef %102) #8, !tbaa !11
  %104 = fmul double %101, %103
  %105 = getelementptr inbounds nuw %struct.Py_complex, ptr %8, i32 0, i32 1
  store double %104, ptr %105, align 8, !tbaa !19
  %106 = call ptr @__errno_location() #9
  store i32 0, ptr %106, align 4, !tbaa !11
  br label %107

107:                                              ; preds = %95, %87
  br label %108

108:                                              ; preds = %107, %83
  %109 = call ptr @__errno_location() #9
  %110 = load i32, ptr %109, align 4, !tbaa !11
  %111 = icmp ne i32 %110, 0
  br i1 %111, label %112, label %114

112:                                              ; preds = %108
  %113 = call ptr @math_error()
  store ptr %113, ptr %4, align 8
  store i32 1, ptr %9, align 4
  br label %120

114:                                              ; preds = %108
  %115 = getelementptr inbounds nuw { double, double }, ptr %8, i32 0, i32 0
  %116 = load double, ptr %115, align 8
  %117 = getelementptr inbounds nuw { double, double }, ptr %8, i32 0, i32 1
  %118 = load double, ptr %117, align 8
  %119 = call ptr @PyComplex_FromCComplex(double %116, double %118)
  store ptr %119, ptr %4, align 8
  store i32 1, ptr %9, align 4
  br label %120

120:                                              ; preds = %114, %112
  call void @llvm.lifetime.end.p0(i64 16, ptr %8) #8
  %121 = load ptr, ptr %4, align 8
  ret ptr %121
}

; Function Attrs: inlinehint nounwind uwtable
define internal double @PyFloat_AS_DOUBLE(ptr noundef %0) #7 {
  %2 = alloca ptr, align 8
  store ptr %0, ptr %2, align 8, !tbaa !3
  %3 = load ptr, ptr %2, align 8, !tbaa !3
  %4 = getelementptr inbounds nuw %struct.PyFloatObject, ptr %3, i32 0, i32 1
  %5 = load double, ptr %4, align 8, !tbaa !23
  ret double %5
}

; Function Attrs: inlinehint nounwind uwtable
define internal i32 @Py_IS_TYPE(ptr noundef %0, ptr noundef %1) #7 {
  %3 = alloca ptr, align 8
  %4 = alloca ptr, align 8
  store ptr %0, ptr %3, align 8, !tbaa !3
  store ptr %1, ptr %4, align 8, !tbaa !21
  %5 = load ptr, ptr %3, align 8, !tbaa !3
  %6 = call ptr @_Py_TYPE(ptr noundef %5)
  %7 = load ptr, ptr %4, align 8, !tbaa !21
  %8 = icmp eq ptr %6, %7
  %9 = zext i1 %8 to i32
  ret i32 %9
}

; Function Attrs: nounwind uwtable
define internal ptr @cmath_rect(ptr noundef %0, ptr noundef %1, i64 noundef %2) #0 {
  %4 = alloca ptr, align 8
  %5 = alloca ptr, align 8
  %6 = alloca i64, align 8
  %7 = alloca ptr, align 8
  %8 = alloca double, align 8
  %9 = alloca double, align 8
  store ptr %0, ptr %4, align 8, !tbaa !3
  store ptr %1, ptr %5, align 8, !tbaa !13
  store i64 %2, ptr %6, align 8, !tbaa !15
  call void @llvm.lifetime.start.p0(i64 8, ptr %7) #8
  store ptr null, ptr %7, align 8, !tbaa !3
  call void @llvm.lifetime.start.p0(i64 8, ptr %8) #8
  call void @llvm.lifetime.start.p0(i64 8, ptr %9) #8
  %10 = load i64, ptr %6, align 8, !tbaa !15
  %11 = icmp sle i64 2, %10
  br i1 %11, label %12, label %15

12:                                               ; preds = %3
  %13 = load i64, ptr %6, align 8, !tbaa !15
  %14 = icmp sle i64 %13, 2
  br i1 %14, label %20, label %15

15:                                               ; preds = %12, %3
  %16 = load i64, ptr %6, align 8, !tbaa !15
  %17 = call i32 @_PyArg_CheckPositional(ptr noundef @.str.18, i64 noundef %16, i64 noundef 2, i64 noundef 2)
  %18 = icmp ne i32 %17, 0
  br i1 %18, label %20, label %19

19:                                               ; preds = %15
  br label %71

20:                                               ; preds = %15, %12
  %21 = load ptr, ptr %5, align 8, !tbaa !13
  %22 = getelementptr ptr, ptr %21, i64 0
  %23 = load ptr, ptr %22, align 8, !tbaa !3
  %24 = call i32 @Py_IS_TYPE(ptr noundef %23, ptr noundef @PyFloat_Type)
  %25 = icmp ne i32 %24, 0
  br i1 %25, label %26, label %31

26:                                               ; preds = %20
  %27 = load ptr, ptr %5, align 8, !tbaa !13
  %28 = getelementptr ptr, ptr %27, i64 0
  %29 = load ptr, ptr %28, align 8, !tbaa !3
  %30 = call double @PyFloat_AS_DOUBLE(ptr noundef %29)
  store double %30, ptr %8, align 8, !tbaa !9
  br label %43

31:                                               ; preds = %20
  %32 = load ptr, ptr %5, align 8, !tbaa !13
  %33 = getelementptr ptr, ptr %32, i64 0
  %34 = load ptr, ptr %33, align 8, !tbaa !3
  %35 = call double @PyFloat_AsDouble(ptr noundef %34)
  store double %35, ptr %8, align 8, !tbaa !9
  %36 = load double, ptr %8, align 8, !tbaa !9
  %37 = fcmp oeq double %36, -1.000000e+00
  br i1 %37, label %38, label %42

38:                                               ; preds = %31
  %39 = call ptr @PyErr_Occurred()
  %40 = icmp ne ptr %39, null
  br i1 %40, label %41, label %42

41:                                               ; preds = %38
  br label %71

42:                                               ; preds = %38, %31
  br label %43

43:                                               ; preds = %42, %26
  %44 = load ptr, ptr %5, align 8, !tbaa !13
  %45 = getelementptr ptr, ptr %44, i64 1
  %46 = load ptr, ptr %45, align 8, !tbaa !3
  %47 = call i32 @Py_IS_TYPE(ptr noundef %46, ptr noundef @PyFloat_Type)
  %48 = icmp ne i32 %47, 0
  br i1 %48, label %49, label %54

49:                                               ; preds = %43
  %50 = load ptr, ptr %5, align 8, !tbaa !13
  %51 = getelementptr ptr, ptr %50, i64 1
  %52 = load ptr, ptr %51, align 8, !tbaa !3
  %53 = call double @PyFloat_AS_DOUBLE(ptr noundef %52)
  store double %53, ptr %9, align 8, !tbaa !9
  br label %66

54:                                               ; preds = %43
  %55 = load ptr, ptr %5, align 8, !tbaa !13
  %56 = getelementptr ptr, ptr %55, i64 1
  %57 = load ptr, ptr %56, align 8, !tbaa !3
  %58 = call double @PyFloat_AsDouble(ptr noundef %57)
  store double %58, ptr %9, align 8, !tbaa !9
  %59 = load double, ptr %9, align 8, !tbaa !9
  %60 = fcmp oeq double %59, -1.000000e+00
  br i1 %60, label %61, label %65

61:                                               ; preds = %54
  %62 = call ptr @PyErr_Occurred()
  %63 = icmp ne ptr %62, null
  br i1 %63, label %64, label %65

64:                                               ; preds = %61
  br label %71

65:                                               ; preds = %61, %54
  br label %66

66:                                               ; preds = %65, %49
  %67 = load ptr, ptr %4, align 8, !tbaa !3
  %68 = load double, ptr %8, align 8, !tbaa !9
  %69 = load double, ptr %9, align 8, !tbaa !9
  %70 = call ptr @cmath_rect_impl(ptr noundef %67, double noundef %68, double noundef %69)
  store ptr %70, ptr %7, align 8, !tbaa !3
  br label %71

71:                                               ; preds = %66, %64, %41, %19
  %72 = load ptr, ptr %7, align 8, !tbaa !3
  call void @llvm.lifetime.end.p0(i64 8, ptr %9) #8
  call void @llvm.lifetime.end.p0(i64 8, ptr %8) #8
  call void @llvm.lifetime.end.p0(i64 8, ptr %7) #8
  ret ptr %72
}