; Function Attrs: nounwind uwtable
define internal ptr @cmath_rect(ptr readnone captures(none) %0, ptr noundef readonly captures(none) %1, i64 noundef %2) #0 {
  %or.cond = icmp eq i64 %2, 2
  br i1 %or.cond, label %6, label %4

4:                                                ; preds = %3
  %5 = tail call i32 @_PyArg_CheckPositional(ptr noundef nonnull @.str.18, i64 noundef %2, i64 noundef 2, i64 noundef 2) #11
  %.not = icmp eq i32 %5, 0
  br i1 %.not, label %cmath_rect_impl.exit, label %6

6:                                                ; preds = %3, %4
  %7 = load ptr, ptr %1, align 8, !tbaa !9
  %8 = getelementptr i8, ptr %7, i64 8
  %.val = load ptr, ptr %8, align 8, !tbaa !17
  %.not27 = icmp eq ptr %.val, @PyFloat_Type
  br i1 %.not27, label %9, label %11

9:                                                ; preds = %6
  %10 = getelementptr i8, ptr %7, i64 16
  %.val25 = load double, ptr %10, align 8, !tbaa !18
  br label %16

11:                                               ; preds = %6
  %12 = tail call double @PyFloat_AsDouble(ptr noundef nonnull %7) #11
  %13 = fcmp oeq double %12, -1.000000e+00
  br i1 %13, label %14, label %16

14:                                               ; preds = %11
  %15 = tail call ptr @PyErr_Occurred() #11
  %.not21 = icmp eq ptr %15, null
  br i1 %.not21, label %16, label %cmath_rect_impl.exit

16:                                               ; preds = %11, %14, %9
  %.015 = phi double [ %.val25, %9 ], [ -1.000000e+00, %14 ], [ %12, %11 ]
  %17 = getelementptr i8, ptr %1, i64 8
  %18 = load ptr, ptr %17, align 8, !tbaa !9
  %19 = getelementptr i8, ptr %18, i64 8
  %.val24 = load ptr, ptr %19, align 8, !tbaa !17
  %.not28 = icmp eq ptr %.val24, @PyFloat_Type
  br i1 %.not28, label %20, label %22

20:                                               ; preds = %16
  %21 = getelementptr i8, ptr %18, i64 16
  %.val26 = load double, ptr %21, align 8, !tbaa !18
  br label %27

22:                                               ; preds = %16
  %23 = tail call double @PyFloat_AsDouble(ptr noundef nonnull %18) #11
  %24 = fcmp oeq double %23, -1.000000e+00
  br i1 %24, label %25, label %27

25:                                               ; preds = %22
  %26 = tail call ptr @PyErr_Occurred() #11
  %.not23 = icmp eq ptr %26, null
  br i1 %.not23, label %27, label %cmath_rect_impl.exit

27:                                               ; preds = %22, %25, %20
  %.0 = phi double [ %.val26, %20 ], [ -1.000000e+00, %25 ], [ %23, %22 ]
  %28 = tail call ptr @__errno_location() #12
  %29 = tail call double @llvm.fabs.f64(double %.015)
  %30 = fcmp ueq double %29, 0x7FF0000000000000
  %31 = tail call double @llvm.fabs.f64(double %.0)
  %32 = fcmp ueq double %31, 0x7FF0000000000000
  %or.cond28.i = or i1 %30, %32
  br i1 %or.cond28.i, label %33, label %75

33:                                               ; preds = %27
  %34 = fcmp oeq double %29, 0x7FF0000000000000
  br i1 %34, label %35, label %49

35:                                               ; preds = %33
  %or.cond.i = tail call i1 @llvm.is.fpclass.f64(double %.0, i32 408)
  br i1 %or.cond.i, label %36, label %49

36:                                               ; preds = %35
  %37 = fcmp ogt double %.015, 0.000000e+00
  %38 = tail call double @cos(double noundef %.0) #11, !tbaa !3
  br i1 %37, label %39, label %43

39:                                               ; preds = %36
  %40 = tail call double @llvm.copysign.f64(double 0x7FF0000000000000, double %38)
  %41 = tail call double @sin(double noundef %.0) #11, !tbaa !3
  %42 = tail call double @llvm.copysign.f64(double 0x7FF0000000000000, double %41)
  br label %73

43:                                               ; preds = %36
  %44 = fneg double %38
  %45 = tail call double @llvm.copysign.f64(double 0x7FF0000000000000, double %44)
  %46 = tail call double @sin(double noundef %.0) #11, !tbaa !3
  %47 = fneg double %46
  %48 = tail call double @llvm.copysign.f64(double 0x7FF0000000000000, double %47)
  br label %73

49:                                               ; preds = %35, %33
  br i1 %30, label %56, label %50

50:                                               ; preds = %49
  %51 = fcmp une double %.015, 0.000000e+00
  %52 = tail call double @llvm.copysign.f64(double 1.000000e+00, double %.015)
  %53 = fcmp oeq double %52, 1.000000e+00
  br i1 %51, label %54, label %55

54:                                               ; preds = %50
  %..i.i = select i1 %53, i64 4, i64 1
  br label %special_type.exit.i

55:                                               ; preds = %50
  %.7.i.i = select i1 %53, i64 3, i64 2
  br label %special_type.exit.i

56:                                               ; preds = %49
  %57 = fcmp uno double %.015, 0.000000e+00
  br i1 %57, label %special_type.exit.i, label %58

58:                                               ; preds = %56
  %59 = tail call double @llvm.copysign.f64(double 1.000000e+00, double %.015)
  %60 = fcmp oeq double %59, 1.000000e+00
  %.8.i.i = select i1 %60, i64 5, i64 0
  br label %special_type.exit.i

special_type.exit.i:                              ; preds = %58, %56, %55, %54
  %.0.i.i = phi i64 [ %..i.i, %54 ], [ %.7.i.i, %55 ], [ 6, %56 ], [ %.8.i.i, %58 ]
  br i1 %32, label %67, label %61

61:                                               ; preds = %special_type.exit.i
  %62 = fcmp une double %.0, 0.000000e+00
  %63 = tail call double @llvm.copysign.f64(double 1.000000e+00, double %.0)
  %64 = fcmp oeq double %63, 1.000000e+00
  br i1 %62, label %65, label %66

65:                                               ; preds = %61
  %..i34.i = select i1 %64, i64 4, i64 1
  br label %special_type.exit36.i

66:                                               ; preds = %61
  %.7.i32.i = select i1 %64, i64 3, i64 2
  br label %special_type.exit36.i

67:                                               ; preds = %special_type.exit.i
  %68 = fcmp uno double %.0, 0.000000e+00
  br i1 %68, label %special_type.exit36.i, label %69

69:                                               ; preds = %67
  %70 = tail call double @llvm.copysign.f64(double 1.000000e+00, double %.0)
  %71 = fcmp oeq double %70, 1.000000e+00
  %.8.i35.i = select i1 %71, i64 5, i64 0
  br label %special_type.exit36.i

special_type.exit36.i:                            ; preds = %69, %67, %66, %65
  %.0.i33.i = phi i64 [ %..i34.i, %65 ], [ %.7.i32.i, %66 ], [ 6, %67 ], [ %.8.i35.i, %69 ]
  %72 = getelementptr [7 x [7 x %struct.Py_complex]], ptr @rect_special_values, i64 0, i64 %.0.i.i, i64 %.0.i33.i
  %.sroa.0.0.copyload.i = load double, ptr %72, align 16, !tbaa !7
  %.sroa.8.0..sroa_idx.i = getelementptr inbounds nuw i8, ptr %72, i64 8
  %.sroa.8.0.copyload.i = load double, ptr %.sroa.8.0..sroa_idx.i, align 8, !tbaa !7
  br label %73

73:                                               ; preds = %special_type.exit36.i, %43, %39
  %.sroa.8.0.i = phi double [ %42, %39 ], [ %48, %43 ], [ %.sroa.8.0.copyload.i, %special_type.exit36.i ]
  %.sroa.0.0.i = phi double [ %40, %39 ], [ %45, %43 ], [ %.sroa.0.0.copyload.i, %special_type.exit36.i ]
  %or.cond29.i = fcmp one double %.015, 0.000000e+00
  %74 = fcmp oeq double %31, 0x7FF0000000000000
  %or.cond31.i = and i1 %or.cond29.i, %74
  br i1 %or.cond31.i, label %math_error.exit.i, label %85

75:                                               ; preds = %27
  %76 = fcmp oeq double %.0, 0.000000e+00
  br i1 %76, label %77, label %79

77:                                               ; preds = %75
  %78 = fmul double %.015, %.0
  br label %85

79:                                               ; preds = %75
  %80 = tail call double @cos(double noundef %.0) #11, !tbaa !3
  %81 = fmul double %.015, %80
  %82 = tail call double @sin(double noundef %.0) #11, !tbaa !3
  %83 = fmul double %.015, %82
  br label %85

math_error.exit.i:                                ; preds = %73
  store i32 33, ptr %28, align 4, !tbaa !3
  %84 = load ptr, ptr @PyExc_ValueError, align 8, !tbaa !9
  tail call void @PyErr_SetString(ptr noundef %84, ptr noundef nonnull @.str.25) #11
  br label %cmath_rect_impl.exit

85:                                               ; preds = %79, %77, %73
  %.sroa.8.1.ph.i = phi double [ %83, %79 ], [ %78, %77 ], [ %.sroa.8.0.i, %73 ]
  %.sroa.0.1.ph.i = phi double [ %81, %79 ], [ %.015, %77 ], [ %.sroa.0.0.i, %73 ]
  store i32 0, ptr %28, align 4, !tbaa !3
  %86 = tail call ptr @PyComplex_FromCComplex(double %.sroa.0.1.ph.i, double %.sroa.8.1.ph.i) #11
  br label %cmath_rect_impl.exit

cmath_rect_impl.exit:                             ; preds = %85, %math_error.exit.i, %25, %14, %4
  %.016 = phi ptr [ null, %25 ], [ null, %14 ], [ null, %4 ], [ null, %math_error.exit.i ], [ %86, %85 ]
  ret ptr %.016
}